; Function Attrs: nofree norecurse nosync nounwind memory(argmem: write) uwtable
define void @lv_layer_reset(ptr noundef writeonly captures(address_is_null) %0) local_unnamed_addr #7 {
  %.not = icmp eq ptr %0, null
  br i1 %.not, label %.preheader, label %2

.preheader:                                       ; preds = %1, %.preheader
  br label %.preheader

2:                                                ; preds = %1
  %3 = getelementptr inbounds nuw i8, ptr %0, i64 60
  store i8 -1, ptr %3, align 4, !tbaa !107
  ret void
}